target datalayout = "e-m:e-p270:32:32-p271:32:32-p272:64:64-i64:64-i128:128-f80:128-n8:16:32:64-S128"
target triple = "x86_64-pc-linux-gnu"

%"class.euf::enode" = type { ptr, i8, i8, i8, i8, i8, i8, i8, i8, i8, i32, i32, i32, i32, i32, i32, %class.ptr_vector, ptr, ptr, ptr, ptr, %class.id_var_list, %"class.euf::justification", %"class.euf::justification", i32, i8, %class.approx_set, %class.approx_set, [0 x ptr] }
%class.ptr_vector = type { %class.vector }
%class.vector = type { ptr }
%class.id_var_list = type { i32, ptr }
%"class.euf::justification" = type { i32, %union.anon, %union.anon.0 }
%union.anon = type { ptr }
%union.anon.0 = type { ptr }
%class.approx_set = type { %class.approx_set_tpl }
%class.approx_set_tpl = type { i64 }
%class.app = type { %class.expr, ptr, i32, %struct.app_flags, [0 x ptr] }
%class.expr = type { %class.ast }
%class.ast = type { i32, i32, i32, i32 }
%struct.app_flags = type <{ i16, i8, i8 }>

; Function Attrs: mustprogress nounwind uwtable
define linkonce_odr hidden noundef i32 @_ZNK3ast8get_kindEv(ptr noundef nonnull align 4 dereferenceable(16) %0) #6 comdat align 2 {
  %2 = alloca ptr, align 8
  store ptr %0, ptr %2, align 8, !tbaa !72
  %3 = load ptr, ptr %2, align 8
  %4 = getelementptr inbounds nuw %class.ast, ptr %3, i32 0, i32 1
  %5 = load i32, ptr %4, align 4
  %6 = and i32 %5, 65535
  ret i32 %6
}

; Function Attrs: mustprogress nounwind uwtable
define linkonce_odr hidden noundef ptr @_ZNK3app8get_declEv(ptr noundef nonnull align 8 dereferenceable(32) %0) #6 comdat align 2 {
  %2 = alloca ptr, align 8
  store ptr %0, ptr %2, align 8, !tbaa !74
  %3 = load ptr, ptr %2, align 8
  %4 = getelementptr inbounds nuw %class.app, ptr %3, i32 0, i32 1
  %5 = load ptr, ptr %4, align 8, !tbaa !76
  ret ptr %5
}

; Function Attrs: inlinehint mustprogress nounwind uwtable
define linkonce_odr hidden noundef ptr @_Z6to_appP3ast(ptr noundef %0) #8 comdat {
  %2 = alloca ptr, align 8
  store ptr %0, ptr %2, align 8, !tbaa !72
  %3 = load ptr, ptr %2, align 8, !tbaa !72
  ret ptr %3
}

; Function Attrs: inlinehint mustprogress uwtable
define linkonce_odr hidden noundef zeroext i1 @_Z6is_appPK3ast(ptr noundef %0) #9 comdat {
  %2 = alloca ptr, align 8
  store ptr %0, ptr %2, align 8, !tbaa !72
  %3 = load ptr, ptr %2, align 8, !tbaa !72
  %4 = call noundef i32 @_ZNK3ast8get_kindEv(ptr noundef nonnull align 4 dereferenceable(16) %3)
  %5 = icmp eq i32 %4, 0
  ret i1 %5
}

; Function Attrs: mustprogress nounwind uwtable
define linkonce_odr hidden noundef ptr @_ZNK3euf5enode8get_rootEv(ptr noundef nonnull align 8 dereferenceable(176) %0) #6 comdat align 2 {
  %2 = alloca ptr, align 8
  store ptr %0, ptr %2, align 8, !tbaa !3
  %3 = load ptr, ptr %2, align 8
  %4 = getelementptr inbounds nuw %"class.euf::enode", ptr %3, i32 0, i32 18
  %5 = load ptr, ptr %4, align 8, !tbaa !16
  ret ptr %5
}

; Function Attrs: mustprogress nounwind uwtable
define linkonce_odr hidden noundef ptr @_ZNK3euf5enode7get_argEj(ptr noundef nonnull align 8 dereferenceable(176) %0, i32 noundef %1) #6 comdat align 2 {
  %3 = alloca ptr, align 8
  %4 = alloca i32, align 4
  store ptr %0, ptr %3, align 8, !tbaa !3
  store i32 %1, ptr %4, align 4, !tbaa !10
  %5 = load ptr, ptr %3, align 8
  %6 = getelementptr inbounds nuw %"class.euf::enode", ptr %5, i32 0, i32 28
  %7 = load i32, ptr %4, align 4, !tbaa !10
  %8 = zext i32 %7 to i64
  %9 = getelementptr inbounds nuw [0 x ptr], ptr %6, i64 0, i64 %8
  %10 = load ptr, ptr %9, align 8, !tbaa !3
  ret ptr %10
}

; Function Attrs: mustprogress nounwind uwtable
define linkonce_odr hidden noundef i32 @_ZNK3euf5enode8num_argsEv(ptr noundef nonnull align 8 dereferenceable(176) %0) #6 comdat align 2 {
  %2 = alloca ptr, align 8
  store ptr %0, ptr %2, align 8, !tbaa !3
  %3 = load ptr, ptr %2, align 8
  %4 = getelementptr inbounds nuw %"class.euf::enode", ptr %3, i32 0, i32 24
  %5 = load i32, ptr %4, align 8, !tbaa !57
  ret i32 %5
}

; Function Attrs: mustprogress uwtable
define linkonce_odr hidden noundef ptr @_ZNK3euf5enode8get_declEv(ptr noundef nonnull align 8 dereferenceable(176) %0) #4 comdat align 2 {
  %2 = alloca ptr, align 8
  store ptr %0, ptr %2, align 8, !tbaa !3
  %3 = load ptr, ptr %2, align 8
  %4 = getelementptr inbounds nuw %"class.euf::enode", ptr %3, i32 0, i32 0
  %5 = load ptr, ptr %4, align 8, !tbaa !56
  %6 = call noundef zeroext i1 @_Z6is_appPK3ast(ptr noundef %5)
  br i1 %6, label %7, label %12

7:                                                ; preds = %1
  %8 = getelementptr inbounds nuw %"class.euf::enode", ptr %3, i32 0, i32 0
  %9 = load ptr, ptr %8, align 8, !tbaa !56
  %10 = call noundef ptr @_Z6to_appP3ast(ptr noundef %9)
  %11 = call noundef ptr @_ZNK3app8get_declEv(ptr noundef nonnull align 8 dereferenceable(32) %10)
  br label %13

12:                                               ; preds = %1
  br label %13

13:                                               ; preds = %12, %7
  %14 = phi ptr [ %11, %7 ], [ null, %12 ]
  ret ptr %14
}

; Function Attrs: mustprogress uwtable
define hidden noundef zeroext i1 @_ZNK3euf5enode9congruentEPS0_(ptr noundef nonnull align 8 dereferenceable(176) %0, ptr noundef %1) #4 align 2 {
  %3 = alloca i1, align 1
  %4 = alloca ptr, align 8
  %5 = alloca ptr, align 8
  %6 = alloca i32, align 4
  %7 = alloca i32, align 4
  store ptr %0, ptr %4, align 8, !tbaa !3
  store ptr %1, ptr %5, align 8, !tbaa !3
  %8 = load ptr, ptr %4, align 8
  %9 = call noundef ptr @_ZNK3euf5enode8get_declEv(ptr noundef nonnull align 8 dereferenceable(176) %8)
  %10 = load ptr, ptr %5, align 8, !tbaa !3
  %11 = call noundef ptr @_ZNK3euf5enode8get_declEv(ptr noundef nonnull align 8 dereferenceable(176) %10)
  %12 = icmp ne ptr %9, %11
  br i1 %12, label %13, label %14

13:                                               ; preds = %2
  store i1 false, ptr %3, align 1
  br label %60

14:                                               ; preds = %2
  %15 = call noundef i32 @_ZNK3euf5enode8num_argsEv(ptr noundef nonnull align 8 dereferenceable(176) %8)
  %16 = load ptr, ptr %5, align 8, !tbaa !3
  %17 = call noundef i32 @_ZNK3euf5enode8num_argsEv(ptr noundef nonnull align 8 dereferenceable(176) %16)
  %18 = icmp ne i32 %15, %17
  br i1 %18, label %19, label %20

19:                                               ; preds = %14
  store i1 false, ptr %3, align 1
  br label %60

20:                                               ; preds = %14
  %21 = getelementptr inbounds nuw %"class.euf::enode", ptr %8, i32 0, i32 4
  %22 = load i8, ptr %21, align 1, !tbaa !53, !range !31, !noundef !32
  %23 = trunc i8 %22 to i1
  br i1 %23, label %24, label %39

24:                                               ; preds = %20
  %25 = call noundef ptr @_ZNK3euf5enode7get_argEj(ptr noundef nonnull align 8 dereferenceable(176) %8, i32 noundef 0)
  %26 = call noundef ptr @_ZNK3euf5enode8get_rootEv(ptr noundef nonnull align 8 dereferenceable(176) %25)
  %27 = load ptr, ptr %5, align 8, !tbaa !3
  %28 = call noundef ptr @_ZNK3euf5enode7get_argEj(ptr noundef nonnull align 8 dereferenceable(176) %27, i32 noundef 1)
  %29 = call noundef ptr @_ZNK3euf5enode8get_rootEv(ptr noundef nonnull align 8 dereferenceable(176) %28)
  %30 = icmp eq ptr %26, %29
  br i1 %30, label %31, label %39

31:                                               ; preds = %24
  %32 = call noundef ptr @_ZNK3euf5enode7get_argEj(ptr noundef nonnull align 8 dereferenceable(176) %8, i32 noundef 1)
  %33 = call noundef ptr @_ZNK3euf5enode8get_rootEv(ptr noundef nonnull align 8 dereferenceable(176) %32)
  %34 = load ptr, ptr %5, align 8, !tbaa !3
  %35 = call noundef ptr @_ZNK3euf5enode7get_argEj(ptr noundef nonnull align 8 dereferenceable(176) %34, i32 noundef 0)
  %36 = call noundef ptr @_ZNK3euf5enode8get_rootEv(ptr noundef nonnull align 8 dereferenceable(176) %35)
  %37 = icmp eq ptr %33, %36
  br i1 %37, label %38, label %39

38:                                               ; preds = %31
  store i1 true, ptr %3, align 1
  br label %60

39:                                               ; preds = %31, %24, %20
  call void @llvm.lifetime.start.p0(i64 4, ptr %6) #3
  %40 = call noundef i32 @_ZNK3euf5enode8num_argsEv(ptr noundef nonnull align 8 dereferenceable(176) %8)
  store i32 %40, ptr %6, align 4, !tbaa !10
  br label %41

41:                                               ; preds = %56, %39
  %42 = load i32, ptr %6, align 4, !tbaa !10
  %43 = add i32 %42, -1
  store i32 %43, ptr %6, align 4, !tbaa !10
  %44 = icmp ugt i32 %42, 0
  br i1 %44, label %46, label %45

45:                                               ; preds = %41
  store i32 2, ptr %7, align 4
  br label %57

46:                                               ; preds = %41
  %47 = load i32, ptr %6, align 4, !tbaa !10
  %48 = call noundef ptr @_ZNK3euf5enode7get_argEj(ptr noundef nonnull align 8 dereferenceable(176) %8, i32 noundef %47)
  %49 = call noundef ptr @_ZNK3euf5enode8get_rootEv(ptr noundef nonnull align 8 dereferenceable(176) %48)
  %50 = load ptr, ptr %5, align 8, !tbaa !3
  %51 = load i32, ptr %6, align 4, !tbaa !10
  %52 = call noundef ptr @_ZNK3euf5enode7get_argEj(ptr noundef nonnull align 8 dereferenceable(176) %50, i32 noundef %51)
  %53 = call noundef ptr @_ZNK3euf5enode8get_rootEv(ptr noundef nonnull align 8 dereferenceable(176) %52)
  %54 = icmp ne ptr %49, %53
  br i1 %54, label %55, label %56

55:                                               ; preds = %46
  store i1 false, ptr %3, align 1
  store i32 1, ptr %7, align 4
  br label %57

56:                                               ; preds = %46
  br label %41, !llvm.loop !54

57:                                               ; preds = %55, %45
  call void @llvm.lifetime.end.p0(i64 4, ptr %6) #3
  %58 = load i32, ptr %7, align 4
  switch i32 %58, label %62 [
    i32 2, label %59
    i32 1, label %60
  ]

59:                                               ; preds = %57
  store i1 true, ptr %3, align 1
  br label %60

60:                                               ; preds = %59, %57, %38, %19, %13
  %61 = load i1, ptr %3, align 1
  ret i1 %61

62:                                               ; preds = %57
  unreachable
}