; Function Attrs: mustprogress nofree norecurse nosync nounwind willreturn memory(read, inaccessiblemem: none) uwtable
define hidden noundef zeroext i1 @_ZNK3euf5enode9congruentEPS0_(ptr noundef nonnull readonly align 8 captures(none) dereferenceable(176) %0, ptr noundef readonly captures(none) %1) local_unnamed_addr #5 align 2 {
  %3 = load ptr, ptr %0, align 8, !tbaa !33
  %4 = getelementptr inbounds nuw i8, ptr %3, i64 4
  %5 = load i32, ptr %4, align 4
  %6 = and i32 %5, 65535
  %7 = icmp eq i32 %6, 0
  br i1 %7, label %8, label %_ZNK3euf5enode8get_declEv.exit

8:                                                ; preds = %2
  %9 = getelementptr inbounds nuw i8, ptr %3, i64 16
  %10 = load ptr, ptr %9, align 8, !tbaa !34
  br label %_ZNK3euf5enode8get_declEv.exit

_ZNK3euf5enode8get_declEv.exit:                   ; preds = %2, %8
  %11 = phi ptr [ %10, %8 ], [ null, %2 ]
  %12 = load ptr, ptr %1, align 8, !tbaa !33
  %13 = getelementptr inbounds nuw i8, ptr %12, i64 4
  %14 = load i32, ptr %13, align 4
  %15 = and i32 %14, 65535
  %16 = icmp eq i32 %15, 0
  br i1 %16, label %17, label %_ZNK3euf5enode8get_declEv.exit15

17:                                               ; preds = %_ZNK3euf5enode8get_declEv.exit
  %18 = getelementptr inbounds nuw i8, ptr %12, i64 16
  %19 = load ptr, ptr %18, align 8, !tbaa !34
  br label %_ZNK3euf5enode8get_declEv.exit15

_ZNK3euf5enode8get_declEv.exit15:                 ; preds = %_ZNK3euf5enode8get_declEv.exit, %17
  %20 = phi ptr [ %19, %17 ], [ null, %_ZNK3euf5enode8get_declEv.exit ]
  %.not = icmp eq ptr %11, %20
  br i1 %.not, label %21, label %.loopexit

21:                                               ; preds = %_ZNK3euf5enode8get_declEv.exit15
  %22 = getelementptr inbounds nuw i8, ptr %0, i64 152
  %23 = load i32, ptr %22, align 8, !tbaa !32
  %24 = getelementptr inbounds nuw i8, ptr %1, i64 152
  %25 = load i32, ptr %24, align 8, !tbaa !32
  %.not12 = icmp eq i32 %23, %25
  br i1 %.not12, label %26, label %.loopexit

26:                                               ; preds = %21
  %27 = getelementptr inbounds nuw i8, ptr %0, i64 11
  %28 = load i8, ptr %27, align 1, !tbaa !40, !range !30, !noundef !31
  %29 = trunc nuw i8 %28 to i1
  br i1 %29, label %30, label %50

30:                                               ; preds = %26
  %31 = getelementptr inbounds nuw i8, ptr %0, i64 176
  %32 = load ptr, ptr %31, align 8, !tbaa !28
  %33 = getelementptr inbounds nuw i8, ptr %32, i64 64
  %34 = load ptr, ptr %33, align 8, !tbaa !3
  %35 = getelementptr inbounds nuw i8, ptr %1, i64 184
  %36 = load ptr, ptr %35, align 8, !tbaa !28
  %37 = getelementptr inbounds nuw i8, ptr %36, i64 64
  %38 = load ptr, ptr %37, align 8, !tbaa !3
  %39 = icmp eq ptr %34, %38
  br i1 %39, label %40, label %50

40:                                               ; preds = %30
  %41 = getelementptr inbounds nuw i8, ptr %1, i64 176
  %42 = getelementptr inbounds nuw i8, ptr %0, i64 184
  %43 = load ptr, ptr %42, align 8, !tbaa !28
  %44 = getelementptr inbounds nuw i8, ptr %43, i64 64
  %45 = load ptr, ptr %44, align 8, !tbaa !3
  %46 = load ptr, ptr %41, align 8, !tbaa !28
  %47 = getelementptr inbounds nuw i8, ptr %46, i64 64
  %48 = load ptr, ptr %47, align 8, !tbaa !3
  %49 = icmp eq ptr %45, %48
  br i1 %49, label %.loopexit, label %50

50:                                               ; preds = %40, %30, %26
  %51 = getelementptr inbounds nuw i8, ptr %0, i64 176
  %52 = getelementptr inbounds nuw i8, ptr %1, i64 176
  %53 = zext i32 %23 to i64
  br label %54

54:                                               ; preds = %55, %50
  %indvars.iv = phi i64 [ %56, %55 ], [ %53, %50 ]
  %.not13 = icmp eq i64 %indvars.iv, 0
  br i1 %.not13, label %.loopexit, label %55

55:                                               ; preds = %54
  %56 = add nsw i64 %indvars.iv, -1
  %57 = getelementptr inbounds nuw [0 x ptr], ptr %51, i64 0, i64 %56
  %58 = load ptr, ptr %57, align 8, !tbaa !28
  %59 = getelementptr inbounds nuw i8, ptr %58, i64 64
  %60 = load ptr, ptr %59, align 8, !tbaa !3
  %61 = getelementptr inbounds nuw [0 x ptr], ptr %52, i64 0, i64 %56
  %62 = load ptr, ptr %61, align 8, !tbaa !28
  %63 = getelementptr inbounds nuw i8, ptr %62, i64 64
  %64 = load ptr, ptr %63, align 8, !tbaa !3
  %.not14 = icmp eq ptr %60, %64
  br i1 %.not14, label %54, label %.loopexit, !llvm.loop !41

.loopexit:                                        ; preds = %54, %55, %40, %21, %_ZNK3euf5enode8get_declEv.exit15
  %.011 = phi i1 [ false, %_ZNK3euf5enode8get_declEv.exit15 ], [ false, %21 ], [ true, %40 ], [ %.not13, %55 ], [ %.not13, %54 ]
  ret i1 %.011
}